target datalayout = "e-m:e-p270:32:32-p271:32:32-p272:64:64-i64:64-i128:128-f80:128-n8:16:32:64-S128"
target triple = "x86_64-pc-linux-gnu"

%struct.lua_State = type { i8, i8, i8, i8, i8, i8, i8, ptr, ptr, ptr, ptr, ptr, ptr, ptr, ptr, i32, i32, i16, i16, i32, ptr, ptr, ptr, ptr, ptr }

; Function Attrs: mustprogress nounwind uwtable
define dso_local noundef i32 @_Z12lua_costatusP9lua_StateS0_(ptr noundef %0, ptr noundef %1) #3 {
  %3 = alloca i32, align 4
  %4 = alloca ptr, align 8
  %5 = alloca ptr, align 8
  store ptr %0, ptr %4, align 8, !tbaa !4
  store ptr %1, ptr %5, align 8, !tbaa !4
  %6 = load ptr, ptr %5, align 8, !tbaa !4
  %7 = load ptr, ptr %4, align 8, !tbaa !4
  %8 = icmp eq ptr %6, %7
  br i1 %8, label %9, label %10

9:                                                ; preds = %2
  store i32 0, ptr %3, align 4
  br label %50

10:                                               ; preds = %2
  %11 = load ptr, ptr %5, align 8, !tbaa !4
  %12 = getelementptr inbounds nuw %struct.lua_State, ptr %11, i32 0, i32 3
  %13 = load i8, ptr %12, align 1, !tbaa !105
  %14 = zext i8 %13 to i32
  %15 = icmp eq i32 %14, 1
  br i1 %15, label %16, label %17

16:                                               ; preds = %10
  store i32 1, ptr %3, align 4
  br label %50

17:                                               ; preds = %10
  %18 = load ptr, ptr %5, align 8, !tbaa !4
  %19 = getelementptr inbounds nuw %struct.lua_State, ptr %18, i32 0, i32 3
  %20 = load i8, ptr %19, align 1, !tbaa !105
  %21 = zext i8 %20 to i32
  %22 = icmp eq i32 %21, 6
  br i1 %22, label %23, label %24

23:                                               ; preds = %17
  store i32 2, ptr %3, align 4
  br label %50

24:                                               ; preds = %17
  %25 = load ptr, ptr %5, align 8, !tbaa !4
  %26 = getelementptr inbounds nuw %struct.lua_State, ptr %25, i32 0, i32 3
  %27 = load i8, ptr %26, align 1, !tbaa !105
  %28 = zext i8 %27 to i32
  %29 = icmp ne i32 %28, 0
  br i1 %29, label %30, label %31

30:                                               ; preds = %24
  store i32 4, ptr %3, align 4
  br label %50

31:                                               ; preds = %24
  %32 = load ptr, ptr %5, align 8, !tbaa !4
  %33 = getelementptr inbounds nuw %struct.lua_State, ptr %32, i32 0, i32 10
  %34 = load ptr, ptr %33, align 8, !tbaa !27
  %35 = load ptr, ptr %5, align 8, !tbaa !4
  %36 = getelementptr inbounds nuw %struct.lua_State, ptr %35, i32 0, i32 14
  %37 = load ptr, ptr %36, align 8, !tbaa !91
  %38 = icmp ne ptr %34, %37
  br i1 %38, label %39, label %40

39:                                               ; preds = %31
  store i32 2, ptr %3, align 4
  br label %50

40:                                               ; preds = %31
  %41 = load ptr, ptr %5, align 8, !tbaa !4
  %42 = getelementptr inbounds nuw %struct.lua_State, ptr %41, i32 0, i32 7
  %43 = load ptr, ptr %42, align 8, !tbaa !23
  %44 = load ptr, ptr %5, align 8, !tbaa !4
  %45 = getelementptr inbounds nuw %struct.lua_State, ptr %44, i32 0, i32 8
  %46 = load ptr, ptr %45, align 8, !tbaa !13
  %47 = icmp eq ptr %43, %46
  br i1 %47, label %48, label %49

48:                                               ; preds = %40
  store i32 3, ptr %3, align 4
  br label %50

49:                                               ; preds = %40
  store i32 1, ptr %3, align 4
  br label %50

50:                                               ; preds = %49, %48, %39, %30, %23, %16, %9
  %51 = load i32, ptr %3, align 4
  ret i32 %51
}