; Function Attrs: mustprogress nofree norecurse nosync nounwind willreturn memory(argmem: read) uwtable
define dso_local noundef range(i32 0, 5) i32 @_Z12lua_costatusP9lua_StateS0_(ptr noundef readnone %0, ptr noundef readonly %1) local_unnamed_addr #6 {
  %3 = icmp eq ptr %1, %0
  br i1 %3, label %20, label %4

4:                                                ; preds = %2
  %5 = getelementptr inbounds nuw i8, ptr %1, i64 3
  %6 = load i8, ptr %5, align 1, !tbaa !86
  switch i8 %6, label %8 [
    i8 1, label %20
    i8 6, label %7
    i8 0, label %9
  ]

7:                                                ; preds = %4
  br label %20

8:                                                ; preds = %4
  br label %20

9:                                                ; preds = %4
  %10 = getelementptr inbounds nuw i8, ptr %1, i64 32
  %11 = load ptr, ptr %10, align 8, !tbaa !24
  %12 = getelementptr inbounds nuw i8, ptr %1, i64 64
  %13 = load ptr, ptr %12, align 8, !tbaa !73
  %.not11 = icmp eq ptr %11, %13
  br i1 %.not11, label %14, label %20

14:                                               ; preds = %9
  %15 = getelementptr inbounds nuw i8, ptr %1, i64 8
  %16 = load ptr, ptr %15, align 8, !tbaa !19
  %17 = getelementptr inbounds nuw i8, ptr %1, i64 16
  %18 = load ptr, ptr %17, align 8, !tbaa !4
  %19 = icmp eq ptr %16, %18
  %. = select i1 %19, i32 3, i32 1
  br label %20

20:                                               ; preds = %14, %9, %4, %2, %8, %7
  %.0 = phi i32 [ 2, %7 ], [ 4, %8 ], [ 0, %2 ], [ 1, %4 ], [ 2, %9 ], [ %., %14 ]
  ret i32 %.0
}